target datalayout = "e-m:e-p270:32:32-p271:32:32-p272:64:64-i64:64-i128:128-f80:128-n8:16:32:64-S128"
target triple = "x86_64-pc-linux-gnu"

%struct.archive_read = type { %struct.archive, ptr, i32, i64, i64, %struct.archive_read_client, [16 x %struct.archive_read_filter_bidder], ptr, i32, i64, i32, i32, [16 x %struct.archive_format_descriptor], ptr, ptr, ptr, %struct.anon }
%struct.archive = type { i32, i32, ptr, i32, ptr, i32, i32, ptr, %struct.archive_string, ptr, i32, i32, ptr, ptr, i64, i64, i64, i8, i64 }
%struct.archive_string = type { ptr, i64, i64 }
%struct.archive_read_client = type { ptr, ptr, ptr, ptr, ptr, ptr, i32, i32, i64, ptr }
%struct.archive_read_filter_bidder = type { ptr, ptr, ptr }
%struct.archive_format_descriptor = type { ptr, ptr, ptr, ptr, ptr, ptr, ptr, ptr, ptr, ptr, ptr }
%struct.anon = type { ptr, ptr, i32, ptr, ptr }

@.str.33 = private unnamed_addr constant [10 x i8] c"No memory\00", align 1
@.str.34 = private unnamed_addr constant [50 x i8] c"Truncated archive detected while reading metadata\00", align 1

; Function Attrs: nounwind uwtable
define internal void @tar_flush_unconsumed(ptr noundef %0, ptr noundef %1) #0 {
  %3 = alloca ptr, align 8
  %4 = alloca ptr, align 8
  store ptr %0, ptr %3, align 8, !tbaa !11
  store ptr %1, ptr %4, align 8, !tbaa !66
  %5 = load ptr, ptr %4, align 8, !tbaa !66
  %6 = load i64, ptr %5, align 8, !tbaa !46
  %7 = icmp ne i64 %6, 0
  br i1 %7, label %8, label %14

8:                                                ; preds = %2
  %9 = load ptr, ptr %3, align 8, !tbaa !11
  %10 = load ptr, ptr %4, align 8, !tbaa !66
  %11 = load i64, ptr %10, align 8, !tbaa !46
  %12 = call i64 @__archive_read_consume(ptr noundef %9, i64 noundef %11)
  %13 = load ptr, ptr %4, align 8, !tbaa !66
  store i64 0, ptr %13, align 8, !tbaa !46
  br label %14

14:                                               ; preds = %8, %2
  ret void
}

; Function Attrs: nounwind uwtable
define internal i32 @read_bytes_to_string(ptr noundef %0, ptr noundef %1, i64 noundef %2, ptr noundef %3) #0 {
  %5 = alloca i32, align 4
  %6 = alloca ptr, align 8
  %7 = alloca ptr, align 8
  %8 = alloca i64, align 8
  %9 = alloca ptr, align 8
  %10 = alloca ptr, align 8
  %11 = alloca i32, align 4
  store ptr %0, ptr %6, align 8, !tbaa !11
  store ptr %1, ptr %7, align 8, !tbaa !110
  store i64 %2, ptr %8, align 8, !tbaa !46
  store ptr %3, ptr %9, align 8, !tbaa !66
  call void @llvm.lifetime.start.p0(i64 8, ptr %10) #10
  %12 = load ptr, ptr %7, align 8, !tbaa !110
  %13 = load i64, ptr %8, align 8, !tbaa !46
  %14 = add i64 %13, 1
  %15 = call ptr @archive_string_ensure(ptr noundef %12, i64 noundef %14)
  %16 = icmp eq ptr %15, null
  br i1 %16, label %17, label %20

17:                                               ; preds = %4
  %18 = load ptr, ptr %6, align 8, !tbaa !11
  %19 = getelementptr inbounds nuw %struct.archive_read, ptr %18, i32 0, i32 0
  call void (ptr, i32, ptr, ...) @archive_set_error(ptr noundef %19, i32 noundef 12, ptr noundef @.str.33)
  store i32 -30, ptr %5, align 4
  store i32 1, ptr %11, align 4
  br label %50

20:                                               ; preds = %4
  %21 = load ptr, ptr %6, align 8, !tbaa !11
  %22 = load ptr, ptr %9, align 8, !tbaa !66
  call void @tar_flush_unconsumed(ptr noundef %21, ptr noundef %22)
  %23 = load ptr, ptr %6, align 8, !tbaa !11
  %24 = load i64, ptr %8, align 8, !tbaa !46
  %25 = call ptr @__archive_read_ahead(ptr noundef %23, i64 noundef %24, ptr noundef null)
  store ptr %25, ptr %10, align 8, !tbaa !65
  %26 = load ptr, ptr %10, align 8, !tbaa !65
  %27 = icmp eq ptr %26, null
  br i1 %27, label %28, label %32

28:                                               ; preds = %20
  %29 = load ptr, ptr %6, align 8, !tbaa !11
  %30 = getelementptr inbounds nuw %struct.archive_read, ptr %29, i32 0, i32 0
  call void (ptr, i32, ptr, ...) @archive_set_error(ptr noundef %30, i32 noundef 22, ptr noundef @.str.34)
  %31 = load ptr, ptr %9, align 8, !tbaa !66
  store i64 0, ptr %31, align 8, !tbaa !46
  store i32 -30, ptr %5, align 4
  store i32 1, ptr %11, align 4
  br label %50

32:                                               ; preds = %20
  %33 = load ptr, ptr %7, align 8, !tbaa !110
  %34 = getelementptr inbounds nuw %struct.archive_string, ptr %33, i32 0, i32 0
  %35 = load ptr, ptr %34, align 8, !tbaa !102
  %36 = load ptr, ptr %10, align 8, !tbaa !65
  %37 = load i64, ptr %8, align 8, !tbaa !46
  call void @llvm.memcpy.p0.p0.i64(ptr align 1 %35, ptr align 1 %36, i64 %37, i1 false)
  %38 = load ptr, ptr %7, align 8, !tbaa !110
  %39 = getelementptr inbounds nuw %struct.archive_string, ptr %38, i32 0, i32 0
  %40 = load ptr, ptr %39, align 8, !tbaa !102
  %41 = load i64, ptr %8, align 8, !tbaa !46
  %42 = getelementptr inbounds nuw i8, ptr %40, i64 %41
  store i8 0, ptr %42, align 1, !tbaa !17
  %43 = load i64, ptr %8, align 8, !tbaa !46
  %44 = load ptr, ptr %7, align 8, !tbaa !110
  %45 = getelementptr inbounds nuw %struct.archive_string, ptr %44, i32 0, i32 1
  store i64 %43, ptr %45, align 8, !tbaa !103
  %46 = load i64, ptr %8, align 8, !tbaa !46
  %47 = load ptr, ptr %9, align 8, !tbaa !66
  %48 = load i64, ptr %47, align 8, !tbaa !46
  %49 = add i64 %48, %46
  store i64 %49, ptr %47, align 8, !tbaa !46
  store i32 0, ptr %5, align 4
  store i32 1, ptr %11, align 4
  br label %50

50:                                               ; preds = %32, %28, %17
  call void @llvm.lifetime.end.p0(i64 8, ptr %10) #10
  %51 = load i32, ptr %5, align 4
  ret i32 %51
}