; Function Attrs: nounwind uwtable
define internal fastcc range(i32 -30, 1) i32 @read_bytes_to_string(ptr noundef %0, ptr noundef %1, i64 noundef range(i64 0, 1048577) %2, ptr noundef nonnull captures(none) %3) unnamed_addr #0 {
  %5 = add nuw nsw i64 %2, 1
  %6 = tail call ptr @archive_string_ensure(ptr noundef %1, i64 noundef %5) #13
  %7 = icmp eq ptr %6, null
  br i1 %7, label %8, label %9

8:                                                ; preds = %4
  tail call void (ptr, i32, ptr, ...) @archive_set_error(ptr noundef %0, i32 noundef 12, ptr noundef nonnull @.str.33) #13
  br label %23

9:                                                ; preds = %4
  %10 = load i64, ptr %3, align 8, !tbaa !45
  %.not.i = icmp eq i64 %10, 0
  br i1 %.not.i, label %tar_flush_unconsumed.exit, label %11

11:                                               ; preds = %9
  %12 = tail call i64 @__archive_read_consume(ptr noundef %0, i64 noundef %10) #13
  store i64 0, ptr %3, align 8, !tbaa !45
  br label %tar_flush_unconsumed.exit

tar_flush_unconsumed.exit:                        ; preds = %9, %11
  %13 = tail call ptr @__archive_read_ahead(ptr noundef %0, i64 noundef %2, ptr noundef null) #13
  %14 = icmp eq ptr %13, null
  br i1 %14, label %15, label %16

15:                                               ; preds = %tar_flush_unconsumed.exit
  tail call void (ptr, i32, ptr, ...) @archive_set_error(ptr noundef %0, i32 noundef 22, ptr noundef nonnull @.str.34) #13
  store i64 0, ptr %3, align 8, !tbaa !45
  br label %23

16:                                               ; preds = %tar_flush_unconsumed.exit
  %17 = load ptr, ptr %1, align 8, !tbaa !66
  tail call void @llvm.memcpy.p0.p0.i64(ptr align 1 %17, ptr nonnull align 1 %13, i64 %2, i1 false)
  %18 = load ptr, ptr %1, align 8, !tbaa !66
  %19 = getelementptr inbounds nuw i8, ptr %18, i64 %2
  store i8 0, ptr %19, align 1, !tbaa !4
  %20 = getelementptr inbounds nuw i8, ptr %1, i64 8
  store i64 %2, ptr %20, align 8, !tbaa !67
  %21 = load i64, ptr %3, align 8, !tbaa !45
  %22 = add i64 %21, %2
  store i64 %22, ptr %3, align 8, !tbaa !45
  br label %23

23:                                               ; preds = %16, %15, %8
  %.0 = phi i32 [ -30, %8 ], [ -30, %15 ], [ 0, %16 ]
  ret i32 %.0
}